; Function Attrs: mustprogress nofree norecurse nosync nounwind memory(read, argmem: readwrite, inaccessiblemem: none) uwtable
define void @_ZN6Assimp13ObjFileParser14getGroupNumberEv(ptr nocapture noundef nonnull align 8 dereferenceable(4176) %this) local_unnamed_addr #11 align 2 {
entry:
  %agg.tmp.sroa.0.0.copyload = load ptr, ptr %this, align 8
  %m_DataItEnd = getelementptr inbounds i8, ptr %this, i64 8
  %agg.tmp2.sroa.0.0.copyload = load ptr, ptr %m_DataItEnd, align 8
  %m_uiLine = getelementptr inbounds i8, ptr %this, i64 24
  %end.coerce29.i = ptrtoint ptr %agg.tmp2.sroa.0.0.copyload to i64
  %cmp.i.not.i = icmp ult ptr %agg.tmp.sroa.0.0.copyload, %agg.tmp2.sroa.0.0.copyload
  br i1 %cmp.i.not.i, label %while.cond.preheader.i, label %_ZN6Assimp8skipLineIN9__gnu_cxx17__normal_iteratorIPcSt6vectorIcSaIcEEEEEET_S8_S8_Rj.exit

while.cond.preheader.i:                           ; preds = %entry
  %incdec.ptr.i.i.i = getelementptr inbounds i8, ptr %agg.tmp2.sroa.0.0.copyload, i64 -1
  %cmp.i1.i16.i = icmp eq ptr %incdec.ptr.i.i.i, %agg.tmp.sroa.0.0.copyload
  br i1 %cmp.i1.i16.i, label %while.end.i, label %land.rhs.i

land.rhs.i:                                       ; preds = %while.cond.preheader.i, %while.body.i
  %it.sroa.0.017.i = phi ptr [ %incdec.ptr.i.i, %while.body.i ], [ %agg.tmp.sroa.0.0.copyload, %while.cond.preheader.i ]
  %0 = load i8, ptr %it.sroa.0.017.i, align 1
  switch i8 %0, label %while.body.i [
    i8 13, label %while.end.i
    i8 10, label %while.end.i
    i8 0, label %while.end.i
    i8 12, label %while.end.i
  ]

while.body.i:                                     ; preds = %land.rhs.i
  %incdec.ptr.i.i = getelementptr inbounds i8, ptr %it.sroa.0.017.i, i64 1
  %cmp.i.i.i = icmp eq ptr %incdec.ptr.i.i, %agg.tmp2.sroa.0.0.copyload
  %cmp.i1.i.i = icmp eq ptr %incdec.ptr.i.i.i, %incdec.ptr.i.i
  %retval.0.i.i = or i1 %cmp.i.i.i, %cmp.i1.i.i
  br i1 %retval.0.i.i, label %while.end.i, label %land.rhs.i, !llvm.loop !10

while.end.i:                                      ; preds = %while.body.i, %land.rhs.i, %land.rhs.i, %land.rhs.i, %land.rhs.i, %while.cond.preheader.i
  %it.sroa.0.0.lcssa.i = phi ptr [ %agg.tmp.sroa.0.0.copyload, %while.cond.preheader.i ], [ %incdec.ptr.i.i, %while.body.i ], [ %it.sroa.0.017.i, %land.rhs.i ], [ %it.sroa.0.017.i, %land.rhs.i ], [ %it.sroa.0.017.i, %land.rhs.i ], [ %it.sroa.0.017.i, %land.rhs.i ]
  %cmp.i2.not.i = icmp eq ptr %it.sroa.0.0.lcssa.i, %agg.tmp2.sroa.0.0.copyload
  br i1 %cmp.i2.not.i, label %_ZN6Assimp8skipLineIN9__gnu_cxx17__normal_iteratorIPcSt6vectorIcSaIcEEEEEET_S8_S8_Rj.exit, label %if.end12.i

if.end12.i:                                       ; preds = %while.end.i
  %incdec.ptr.i3.i = getelementptr inbounds i8, ptr %it.sroa.0.0.lcssa.i, i64 1
  %1 = load i32, ptr %m_uiLine, align 8
  %inc.i = add i32 %1, 1
  store i32 %inc.i, ptr %m_uiLine, align 8
  %cmp.i4.not25.i = icmp eq ptr %incdec.ptr.i3.i, %agg.tmp2.sroa.0.0.copyload
  br i1 %cmp.i4.not25.i, label %_ZN6Assimp8skipLineIN9__gnu_cxx17__normal_iteratorIPcSt6vectorIcSaIcEEEEEET_S8_S8_Rj.exit, label %land.rhs15.preheader.i

land.rhs15.preheader.i:                           ; preds = %if.end12.i
  %.pre.i = ptrtoint ptr %incdec.ptr.i3.i to i64
  %2 = sub i64 %end.coerce29.i, %.pre.i
  %scevgep.i = getelementptr i8, ptr %incdec.ptr.i3.i, i64 %2
  br label %land.rhs15.i

land.rhs15.i:                                     ; preds = %while.body21.i, %land.rhs15.preheader.i
  %it.sroa.0.226.i = phi ptr [ %incdec.ptr.i5.i, %while.body21.i ], [ %incdec.ptr.i3.i, %land.rhs15.preheader.i ]
  %3 = load i8, ptr %it.sroa.0.226.i, align 1
  switch i8 %3, label %_ZN6Assimp8skipLineIN9__gnu_cxx17__normal_iteratorIPcSt6vectorIcSaIcEEEEEET_S8_S8_Rj.exit [
    i8 9, label %while.body21.i
    i8 32, label %while.body21.i
  ]

while.body21.i:                                   ; preds = %land.rhs15.i, %land.rhs15.i
  %incdec.ptr.i5.i = getelementptr inbounds i8, ptr %it.sroa.0.226.i, i64 1
  %cmp.i4.not.i = icmp eq ptr %incdec.ptr.i5.i, %agg.tmp2.sroa.0.0.copyload
  br i1 %cmp.i4.not.i, label %_ZN6Assimp8skipLineIN9__gnu_cxx17__normal_iteratorIPcSt6vectorIcSaIcEEEEEET_S8_S8_Rj.exit, label %land.rhs15.i, !llvm.loop !11

_ZN6Assimp8skipLineIN9__gnu_cxx17__normal_iteratorIPcSt6vectorIcSaIcEEEEEET_S8_S8_Rj.exit: ; preds = %land.rhs15.i, %while.body21.i, %entry, %while.end.i, %if.end12.i
  %it.sroa.0.3.i = phi ptr [ %agg.tmp.sroa.0.0.copyload, %entry ], [ %agg.tmp2.sroa.0.0.copyload, %if.end12.i ], [ %agg.tmp2.sroa.0.0.copyload, %while.end.i ], [ %it.sroa.0.226.i, %land.rhs15.i ], [ %scevgep.i, %while.body21.i ]
  store ptr %it.sroa.0.3.i, ptr %this, align 8
  ret void
}